; Function Attrs: nounwind uwtable
define hidden void @mbedtls_pem_free(ptr noundef %0) local_unnamed_addr #2 {
  %2 = icmp eq ptr %0, null
  br i1 %2, label %11, label %3

3:                                                ; preds = %1
  %4 = load ptr, ptr %0, align 8, !tbaa !10
  %.not = icmp eq ptr %4, null
  br i1 %.not, label %8, label %5

5:                                                ; preds = %3
  %6 = getelementptr inbounds nuw i8, ptr %0, i64 8
  %7 = load i64, ptr %6, align 8, !tbaa !14
  tail call void @mbedtls_zeroize_and_free(ptr noundef nonnull %4, i64 noundef %7) #12
  br label %8

8:                                                ; preds = %5, %3
  %9 = getelementptr inbounds nuw i8, ptr %0, i64 16
  %10 = load ptr, ptr %9, align 8, !tbaa !16
  tail call void @free(ptr noundef %10) #12
  tail call void @mbedtls_platform_zeroize(ptr noundef nonnull %0, i64 noundef 24) #12
  br label %11

11:                                               ; preds = %1, %8
  ret void
}